target datalayout = "e-m:e-p270:32:32-p271:32:32-p272:64:64-i64:64-i128:128-f80:128-n8:16:32:64-S128"
target triple = "x86_64-pc-linux-gnu"

%struct.event_base = type { ptr, ptr, %struct.event_changelist, ptr, %struct.evsig_info, i32, i32, i32, i32, i32, i32, i32, i32, i32, i32, i32, i32, ptr, i32, %struct.evcallback_list, ptr, i32, i32, %struct.event_signal_map, %struct.event_signal_map, %struct.min_heap, %struct.timeval, %struct.evutil_monotonic_timer, %struct.timeval, i64, i64, ptr, ptr, i32, ptr, i32, %struct.timeval, i32, i32, i32, [2 x i32], %struct.event, ptr, %struct.evutil_weakrand_state, %struct.once_event_list, [2 x %struct.evwatch_list] }
%struct.event_changelist = type { ptr, i32, i32 }
%struct.evsig_info = type { %struct.event, [2 x i32], i32, i32, [65 x ptr], ptr, i32 }
%struct.evcallback_list = type { ptr, ptr }
%struct.event_signal_map = type { ptr, i32 }
%struct.min_heap = type { ptr, i64, i64 }
%struct.evutil_monotonic_timer = type { i32, %struct.timeval, %struct.timeval }
%struct.timeval = type { i64, i64 }
%struct.event = type { %struct.event_callback, %union.anon.0, i32, i16, i16, ptr, %union.anon.2, %struct.timeval }
%struct.event_callback = type { %struct.anon, i16, i8, i8, %union.anon, ptr }
%struct.anon = type { ptr, ptr }
%union.anon = type { ptr }
%union.anon.0 = type { %struct.anon.1 }
%struct.anon.1 = type { ptr, ptr }
%union.anon.2 = type { %struct.anon.3 }
%struct.anon.3 = type { %struct.anon.4, %struct.timeval }
%struct.anon.4 = type { ptr, ptr }
%struct.evutil_weakrand_state = type { i32 }
%struct.once_event_list = type { ptr }
%struct.evwatch_list = type { ptr, ptr }
%struct.__sigset_t = type { [16 x i64] }

@.str.3 = private unnamed_addr constant [19 x i8] c"sigaction() failed\00", align 1
@.str.4 = private unnamed_addr constant [21 x i8] c"sigprocmask() failed\00", align 1

; Function Attrs: nounwind uwtable
define internal void @sigfd_free_sigevent(ptr noundef %0, i32 noundef %1) #0 {
  %3 = alloca ptr, align 8
  %4 = alloca i32, align 4
  %5 = alloca i32, align 4
  %6 = alloca ptr, align 8
  store ptr %0, ptr %3, align 8
  store i32 %1, ptr %4, align 4
  call void @llvm.lifetime.start.p0(i64 4, ptr %5) #4
  call void @llvm.lifetime.start.p0(i64 8, ptr %6) #4
  %7 = load ptr, ptr %3, align 8
  %8 = getelementptr inbounds nuw %struct.event_base, ptr %7, i32 0, i32 4
  %9 = getelementptr inbounds nuw %struct.evsig_info, ptr %8, i32 0, i32 4
  %10 = load i32, ptr %4, align 4
  %11 = sext i32 %10 to i64
  %12 = getelementptr inbounds [65 x ptr], ptr %9, i64 0, i64 %11
  %13 = load ptr, ptr %12, align 8
  store ptr %13, ptr %6, align 8
  br label %14

14:                                               ; preds = %2
  br label %15

15:                                               ; preds = %14
  br label %16

16:                                               ; preds = %15
  %17 = load ptr, ptr %6, align 8
  %18 = call i32 @event_del_nolock_(ptr noundef %17, i32 noundef 2)
  %19 = load ptr, ptr %6, align 8
  %20 = getelementptr inbounds nuw %struct.event, ptr %19, i32 0, i32 2
  %21 = load i32, ptr %20, align 8
  %22 = call i32 @close(i32 noundef %21)
  store i32 %22, ptr %5, align 4
  br label %23

23:                                               ; preds = %16
  br label %24

24:                                               ; preds = %23
  br label %25

25:                                               ; preds = %24
  %26 = load ptr, ptr %6, align 8
  call void @event_mm_free_(ptr noundef %26)
  %27 = load ptr, ptr %3, align 8
  %28 = getelementptr inbounds nuw %struct.event_base, ptr %27, i32 0, i32 4
  %29 = getelementptr inbounds nuw %struct.evsig_info, ptr %28, i32 0, i32 4
  %30 = load i32, ptr %4, align 4
  %31 = sext i32 %30 to i64
  %32 = getelementptr inbounds [65 x ptr], ptr %29, i64 0, i64 %31
  store ptr null, ptr %32, align 8
  call void @llvm.lifetime.end.p0(i64 8, ptr %6) #4
  call void @llvm.lifetime.end.p0(i64 4, ptr %5) #4
  ret void
}

; Function Attrs: nounwind uwtable
define internal i32 @sigfd_del(ptr noundef %0, i32 noundef %1, i16 noundef signext %2, i16 noundef signext %3, ptr noundef %4) #0 {
  %6 = alloca i32, align 4
  %7 = alloca ptr, align 8
  %8 = alloca i32, align 4
  %9 = alloca i16, align 2
  %10 = alloca i16, align 2
  %11 = alloca ptr, align 8
  %12 = alloca %struct.__sigset_t, align 8
  %13 = alloca ptr, align 8
  %14 = alloca ptr, align 8
  %15 = alloca i32, align 4
  %16 = alloca ptr, align 8
  store ptr %0, ptr %7, align 8
  store i32 %1, ptr %8, align 4
  store i16 %2, ptr %9, align 2
  store i16 %3, ptr %10, align 2
  store ptr %4, ptr %11, align 8
  call void @llvm.lifetime.start.p0(i64 128, ptr %12) #4
  call void @llvm.lifetime.start.p0(i64 8, ptr %13) #4
  call void @llvm.lifetime.start.p0(i64 8, ptr %14) #4
  %17 = load ptr, ptr %7, align 8
  %18 = getelementptr inbounds nuw %struct.event_base, ptr %17, i32 0, i32 4
  store ptr %18, ptr %14, align 8
  br label %19

19:                                               ; preds = %5
  br label %20

20:                                               ; preds = %19
  br label %21

21:                                               ; preds = %20
  %22 = load ptr, ptr %7, align 8
  %23 = getelementptr inbounds nuw %struct.event_base, ptr %22, i32 0, i32 4
  %24 = getelementptr inbounds nuw %struct.evsig_info, ptr %23, i32 0, i32 4
  %25 = load i32, ptr %8, align 4
  %26 = sext i32 %25 to i64
  %27 = getelementptr inbounds [65 x ptr], ptr %24, i64 0, i64 %26
  %28 = load ptr, ptr %27, align 8
  store ptr %28, ptr %13, align 8
  br label %29

29:                                               ; preds = %21
  br label %30

30:                                               ; preds = %29
  br label %31

31:                                               ; preds = %30
  %32 = call i32 @sigemptyset(ptr noundef %12) #4
  %33 = load i32, ptr %8, align 4
  %34 = call i32 @sigaddset(ptr noundef %12, i32 noundef %33) #4
  %35 = call i32 @sigprocmask(i32 noundef 1, ptr noundef %12, ptr noundef null) #4
  %36 = icmp ne i32 %35, 0
  br i1 %36, label %37, label %38

37:                                               ; preds = %31
  call void (ptr, ...) @event_warn(ptr noundef @.str.4)
  store i32 -1, ptr %6, align 4
  store i32 1, ptr %15, align 4
  br label %75

38:                                               ; preds = %31
  %39 = load i32, ptr %8, align 4
  %40 = load ptr, ptr %14, align 8
  %41 = getelementptr inbounds nuw %struct.evsig_info, ptr %40, i32 0, i32 6
  %42 = load i32, ptr %41, align 8
  %43 = icmp slt i32 %39, %42
  br i1 %43, label %44, label %72

44:                                               ; preds = %38
  call void @llvm.lifetime.start.p0(i64 8, ptr %16) #4
  %45 = load ptr, ptr %14, align 8
  %46 = getelementptr inbounds nuw %struct.evsig_info, ptr %45, i32 0, i32 5
  %47 = load ptr, ptr %46, align 8
  %48 = load i32, ptr %8, align 4
  %49 = sext i32 %48 to i64
  %50 = getelementptr inbounds ptr, ptr %47, i64 %49
  %51 = load ptr, ptr %50, align 8
  store ptr %51, ptr %16, align 8
  %52 = load ptr, ptr %16, align 8
  %53 = icmp ne ptr %52, null
  br i1 %53, label %54, label %68

54:                                               ; preds = %44
  %55 = load i32, ptr %8, align 4
  %56 = load ptr, ptr %16, align 8
  %57 = call i32 @sigaction(i32 noundef %55, ptr noundef %56, ptr noundef null) #4
  %58 = icmp eq i32 %57, -1
  br i1 %58, label %59, label %60

59:                                               ; preds = %54
  call void (ptr, ...) @event_warn(ptr noundef @.str.3)
  store i32 -1, ptr %6, align 4
  store i32 1, ptr %15, align 4
  br label %69

60:                                               ; preds = %54
  %61 = load ptr, ptr %16, align 8
  call void @event_mm_free_(ptr noundef %61)
  %62 = load ptr, ptr %14, align 8
  %63 = getelementptr inbounds nuw %struct.evsig_info, ptr %62, i32 0, i32 5
  %64 = load ptr, ptr %63, align 8
  %65 = load i32, ptr %8, align 4
  %66 = sext i32 %65 to i64
  %67 = getelementptr inbounds ptr, ptr %64, i64 %66
  store ptr null, ptr %67, align 8
  br label %68

68:                                               ; preds = %60, %44
  store i32 0, ptr %15, align 4
  br label %69

69:                                               ; preds = %68, %59
  call void @llvm.lifetime.end.p0(i64 8, ptr %16) #4
  %70 = load i32, ptr %15, align 4
  switch i32 %70, label %75 [
    i32 0, label %71
  ]

71:                                               ; preds = %69
  br label %72

72:                                               ; preds = %71, %38
  %73 = load ptr, ptr %7, align 8
  %74 = load i32, ptr %8, align 4
  call void @sigfd_free_sigevent(ptr noundef %73, i32 noundef %74)
  store i32 0, ptr %6, align 4
  store i32 1, ptr %15, align 4
  br label %75

75:                                               ; preds = %72, %69, %37
  call void @llvm.lifetime.end.p0(i64 8, ptr %14) #4
  call void @llvm.lifetime.end.p0(i64 8, ptr %13) #4
  call void @llvm.lifetime.end.p0(i64 128, ptr %12) #4
  %76 = load i32, ptr %6, align 4
  ret i32 %76
}