; Function Attrs: nounwind uwtable
define internal range(i32 -1, 1) i32 @sigfd_del(ptr noundef captures(none) %0, i32 noundef %1, i16 signext %2, i16 signext %3, ptr readnone captures(none) %4) #2 {
  %6 = alloca %struct.__sigset_t, align 8
  call void @llvm.lifetime.start.p0(i64 128, ptr nonnull %6) #7
  %7 = sext i32 %1 to i64
  %8 = call i32 @sigemptyset(ptr noundef nonnull %6) #7
  %9 = call i32 @sigaddset(ptr noundef nonnull %6, i32 noundef %1) #7
  %10 = call i32 @sigprocmask(i32 noundef 1, ptr noundef nonnull %6, ptr noundef null) #7
  %.not = icmp eq i32 %10, 0
  br i1 %.not, label %12, label %11

11:                                               ; preds = %5
  call void (ptr, ...) @event_warn(ptr noundef nonnull @.str.4) #7
  br label %35

12:                                               ; preds = %5
  %13 = getelementptr inbounds nuw i8, ptr %0, i64 704
  %14 = load i32, ptr %13, align 8
  %15 = icmp slt i32 %1, %14
  br i1 %15, label %16, label %27

16:                                               ; preds = %12
  %17 = getelementptr inbounds nuw i8, ptr %0, i64 696
  %18 = load ptr, ptr %17, align 8
  %19 = getelementptr inbounds ptr, ptr %18, i64 %7
  %20 = load ptr, ptr %19, align 8
  %.not20 = icmp eq ptr %20, null
  br i1 %.not20, label %27, label %21

21:                                               ; preds = %16
  %22 = call i32 @sigaction(i32 noundef %1, ptr noundef nonnull %20, ptr noundef null) #7
  %23 = icmp eq i32 %22, -1
  br i1 %23, label %.critedge, label %24

.critedge:                                        ; preds = %21
  call void (ptr, ...) @event_warn(ptr noundef nonnull @.str.3) #7
  br label %35

24:                                               ; preds = %21
  call void @event_mm_free_(ptr noundef nonnull %20) #7
  %25 = load ptr, ptr %17, align 8
  %26 = getelementptr inbounds ptr, ptr %25, i64 %7
  store ptr null, ptr %26, align 8
  br label %27

27:                                               ; preds = %24, %16, %12
  %28 = getelementptr inbounds nuw i8, ptr %0, i64 176
  %29 = getelementptr inbounds [65 x ptr], ptr %28, i64 0, i64 %7
  %30 = load ptr, ptr %29, align 8
  %31 = call i32 @event_del_nolock_(ptr noundef %30, i32 noundef 2) #7
  %32 = getelementptr inbounds nuw i8, ptr %30, i64 56
  %33 = load i32, ptr %32, align 8
  %34 = call i32 @close(i32 noundef %33) #7
  call void @event_mm_free_(ptr noundef %30) #7
  store ptr null, ptr %29, align 8
  br label %35

35:                                               ; preds = %.critedge, %27, %11
  %.0 = phi i32 [ -1, %11 ], [ 0, %27 ], [ -1, %.critedge ]
  call void @llvm.lifetime.end.p0(i64 128, ptr nonnull %6) #7
  ret i32 %.0
}